; ModuleID = '2/1069.c'
source_filename = "2/1069.c"
target datalayout = "e-m:e-p270:32:32-p271:32:32-p272:64:64-i64:64-f80:128-n8:16:32:64-S128"
target triple = "x86_64-pc-linux-gnu"

%struct.book = type { i32, [26 x i8] }

@.str = private unnamed_addr constant [3 x i8] c"%d\00", align 1
@.str.1 = private unnamed_addr constant [6 x i8] c"%d %s\00", align 1
@.str.2 = private unnamed_addr constant [7 x i8] c"%c\0A%d\0A\00", align 1
@.str.3 = private unnamed_addr constant [4 x i8] c"%d\0A\00", align 1

; Function Attrs: noinline nounwind uwtable
define dso_local void @main() #0 {
  %1 = alloca i32, align 4
  %2 = alloca i32, align 4
  %3 = alloca i32, align 4
  %4 = alloca i32, align 4
  %5 = alloca i32, align 4
  %6 = alloca i32, align 4
  %7 = alloca [26 x i32], align 16
  %8 = alloca [26 x i8], align 16
  %9 = alloca i8, align 1
  %10 = alloca i8, align 1
  %11 = alloca [1000 x %struct.book], align 16
  %12 = bitcast [26 x i32]* %7 to i8*
  call void @llvm.memset.p0i8.i64(i8* align 16 %12, i8 0, i64 104, i1 false)
  %13 = call i32 (i8*, ...) @__isoc99_scanf(i8* getelementptr inbounds ([3 x i8], [3 x i8]* @.str, i64 0, i64 0), i32* %1)
  store i32 0, i32* %3, align 4
  br label %14

14:                                               ; preds = %28, %0
  %15 = load i32, i32* %3, align 4
  %16 = load i32, i32* %1, align 4
  %17 = icmp slt i32 %15, %16
  br i1 %17, label %18, label %31

18:                                               ; preds = %14
  %19 = load i32, i32* %3, align 4
  %20 = sext i32 %19 to i64
  %21 = getelementptr inbounds [1000 x %struct.book], [1000 x %struct.book]* %11, i64 0, i64 %20
  %22 = getelementptr inbounds %struct.book, %struct.book* %21, i32 0, i32 0
  %23 = load i32, i32* %3, align 4
  %24 = sext i32 %23 to i64
  %25 = getelementptr inbounds [1000 x %struct.book], [1000 x %struct.book]* %11, i64 0, i64 %24
  %26 = getelementptr inbounds %struct.book, %struct.book* %25, i32 0, i32 1
  %27 = call i32 (i8*, ...) @__isoc99_scanf(i8* getelementptr inbounds ([6 x i8], [6 x i8]* @.str.1, i64 0, i64 0), i32* %22, [26 x i8]* %26)
  br label %28

28:                                               ; preds = %18
  %29 = load i32, i32* %3, align 4
  %30 = add nsw i32 %29, 1
  store i32 %30, i32* %3, align 4
  br label %14

31:                                               ; preds = %14
  store i32 0, i32* %3, align 4
  br label %32

32:                                               ; preds = %78, %31
  %33 = load i32, i32* %3, align 4
  %34 = load i32, i32* %1, align 4
  %35 = icmp slt i32 %33, %34
  br i1 %35, label %36, label %81

36:                                               ; preds = %32
  %37 = getelementptr inbounds [26 x i8], [26 x i8]* %8, i64 0, i64 0
  %38 = load i32, i32* %3, align 4
  %39 = sext i32 %38 to i64
  %40 = getelementptr inbounds [1000 x %struct.book], [1000 x %struct.book]* %11, i64 0, i64 %39
  %41 = getelementptr inbounds %struct.book, %struct.book* %40, i32 0, i32 1
  %42 = getelementptr inbounds [26 x i8], [26 x i8]* %41, i64 0, i64 0
  %43 = call i8* @strcpy(i8* %37, i8* %42) #5
  %44 = getelementptr inbounds [26 x i8], [26 x i8]* %8, i64 0, i64 0
  %45 = call i64 @strlen(i8* %44) #6
  %46 = trunc i64 %45 to i32
  store i32 %46, i32* %2, align 4
  store i32 0, i32* %4, align 4
  br label %47

47:                                               ; preds = %74, %36
  %48 = load i32, i32* %4, align 4
  %49 = load i32, i32* %2, align 4
  %50 = icmp slt i32 %48, %49
  br i1 %50, label %51, label %77

51:                                               ; preds = %47
  %52 = load i32, i32* %4, align 4
  %53 = sext i32 %52 to i64
  %54 = getelementptr inbounds [26 x i8], [26 x i8]* %8, i64 0, i64 %53
  %55 = load i8, i8* %54, align 1
  store i8 %55, i8* %10, align 1
  %56 = sext i8 %55 to i32
  %57 = icmp sle i32 65, %56
  br i1 %57, label %58, label %73

58:                                               ; preds = %51
  %59 = load i32, i32* %4, align 4
  %60 = sext i32 %59 to i64
  %61 = getelementptr inbounds [26 x i8], [26 x i8]* %8, i64 0, i64 %60
  %62 = load i8, i8* %61, align 1
  store i8 %62, i8* %10, align 1
  %63 = sext i8 %62 to i32
  %64 = icmp sle i32 %63, 90
  br i1 %64, label %65, label %73

65:                                               ; preds = %58
  %66 = load i8, i8* %10, align 1
  %67 = sext i8 %66 to i32
  %68 = sub nsw i32 %67, 65
  %69 = sext i32 %68 to i64
  %70 = getelementptr inbounds [26 x i32], [26 x i32]* %7, i64 0, i64 %69
  %71 = load i32, i32* %70, align 4
  %72 = add nsw i32 %71, 1
  store i32 %72, i32* %70, align 4
  br label %73

73:                                               ; preds = %65, %58, %51
  br label %74

74:                                               ; preds = %73
  %75 = load i32, i32* %4, align 4
  %76 = add nsw i32 %75, 1
  store i32 %76, i32* %4, align 4
  br label %47

77:                                               ; preds = %47
  br label %78

78:                                               ; preds = %77
  %79 = load i32, i32* %3, align 4
  %80 = add nsw i32 %79, 1
  store i32 %80, i32* %3, align 4
  br label %32

81:                                               ; preds = %32
  %82 = getelementptr inbounds [26 x i32], [26 x i32]* %7, i64 0, i64 0
  %83 = load i32, i32* %82, align 16
  store i32 %83, i32* %6, align 4
  store i32 0, i32* %5, align 4
  store i32 0, i32* %3, align 4
  br label %84

84:                                               ; preds = %101, %81
  %85 = load i32, i32* %3, align 4
  %86 = icmp slt i32 %85, 26
  br i1 %86, label %87, label %104

87:                                               ; preds = %84
  %88 = load i32, i32* %3, align 4
  %89 = sext i32 %88 to i64
  %90 = getelementptr inbounds [26 x i32], [26 x i32]* %7, i64 0, i64 %89
  %91 = load i32, i32* %90, align 4
  %92 = load i32, i32* %6, align 4
  %93 = icmp sgt i32 %91, %92
  br i1 %93, label %94, label %100

94:                                               ; preds = %87
  %95 = load i32, i32* %3, align 4
  %96 = sext i32 %95 to i64
  %97 = getelementptr inbounds [26 x i32], [26 x i32]* %7, i64 0, i64 %96
  %98 = load i32, i32* %97, align 4
  store i32 %98, i32* %6, align 4
  %99 = load i32, i32* %3, align 4
  store i32 %99, i32* %5, align 4
  br label %100

100:                                              ; preds = %94, %87
  br label %101

101:                                              ; preds = %100
  %102 = load i32, i32* %3, align 4
  %103 = add nsw i32 %102, 1
  store i32 %103, i32* %3, align 4
  br label %84

104:                                              ; preds = %84
  %105 = load i32, i32* %5, align 4
  %106 = add nsw i32 %105, 65
  %107 = load i32, i32* %6, align 4
  %108 = call i32 (i8*, ...) @printf(i8* getelementptr inbounds ([7 x i8], [7 x i8]* @.str.2, i64 0, i64 0), i32 %106, i32 %107)
  store i32 0, i32* %3, align 4
  br label %109

109:                                              ; preds = %149, %104
  %110 = load i32, i32* %3, align 4
  %111 = load i32, i32* %1, align 4
  %112 = icmp slt i32 %110, %111
  br i1 %112, label %113, label %152

113:                                              ; preds = %109
  %114 = getelementptr inbounds [26 x i8], [26 x i8]* %8, i64 0, i64 0
  %115 = load i32, i32* %3, align 4
  %116 = sext i32 %115 to i64
  %117 = getelementptr inbounds [1000 x %struct.book], [1000 x %struct.book]* %11, i64 0, i64 %116
  %118 = getelementptr inbounds %struct.book, %struct.book* %117, i32 0, i32 1
  %119 = getelementptr inbounds [26 x i8], [26 x i8]* %118, i64 0, i64 0
  %120 = call i8* @strcpy(i8* %114, i8* %119) #5
  %121 = getelementptr inbounds [26 x i8], [26 x i8]* %8, i64 0, i64 0
  %122 = call i64 @strlen(i8* %121) #6
  %123 = trunc i64 %122 to i32
  store i32 %123, i32* %2, align 4
  store i32 0, i32* %4, align 4
  br label %124

124:                                              ; preds = %145, %113
  %125 = load i32, i32* %4, align 4
  %126 = load i32, i32* %2, align 4
  %127 = icmp slt i32 %125, %126
  br i1 %127, label %128, label %148

128:                                              ; preds = %124
  %129 = load i32, i32* %4, align 4
  %130 = sext i32 %129 to i64
  %131 = getelementptr inbounds [26 x i8], [26 x i8]* %8, i64 0, i64 %130
  %132 = load i8, i8* %131, align 1
  store i8 %132, i8* %9, align 1
  %133 = sext i8 %132 to i32
  %134 = load i32, i32* %5, align 4
  %135 = add nsw i32 %134, 65
  %136 = icmp eq i32 %133, %135
  br i1 %136, label %137, label %144

137:                                              ; preds = %128
  %138 = load i32, i32* %3, align 4
  %139 = sext i32 %138 to i64
  %140 = getelementptr inbounds [1000 x %struct.book], [1000 x %struct.book]* %11, i64 0, i64 %139
  %141 = getelementptr inbounds %struct.book, %struct.book* %140, i32 0, i32 0
  %142 = load i32, i32* %141, align 16
  %143 = call i32 (i8*, ...) @printf(i8* getelementptr inbounds ([4 x i8], [4 x i8]* @.str.3, i64 0, i64 0), i32 %142)
  br label %144

144:                                              ; preds = %137, %128
  br label %145

145:                                              ; preds = %144
  %146 = load i32, i32* %4, align 4
  %147 = add nsw i32 %146, 1
  store i32 %147, i32* %4, align 4
  br label %124

148:                                              ; preds = %124
  br label %149

149:                                              ; preds = %148
  %150 = load i32, i32* %3, align 4
  %151 = add nsw i32 %150, 1
  store i32 %151, i32* %3, align 4
  br label %109

152:                                              ; preds = %109
  ret void
}

; Function Attrs: argmemonly nounwind willreturn
declare void @llvm.memset.p0i8.i64(i8* nocapture writeonly, i8, i64, i1 immarg) #1

declare dso_local i32 @__isoc99_scanf(i8*, ...) #2

; Function Attrs: nounwind
declare dso_local i8* @strcpy(i8*, i8*) #3

; Function Attrs: nounwind readonly
declare dso_local i64 @strlen(i8*) #4

declare dso_local i32 @printf(i8*, ...) #2


!llvm.module.flags = !{!0}
!llvm.ident = !{!1}

!0 = !{i32 1, !"wchar_size", i32 4}
!1 = !{!"clang version 10.0.0-4ubuntu1 "}
